; Function Attrs: mustprogress uwtable
define hidden void @_ZN7nanogui8ComboBoxC2EPNS_6WidgetERKSt6vectorINSt7__cxx1112basic_stringIcSt11char_traitsIcESaIcEEESaIS9_EESD_(ptr noundef nonnull align 8 dereferenceable(428) %0, ptr noundef %1, ptr noundef nonnull align 8 dereferenceable(24) %2, ptr noundef nonnull align 8 dereferenceable(24) %3) unnamed_addr #0 align 2 personality ptr @__gxx_personality_v0 {
  %5 = alloca %"class.std::__cxx11::basic_string", align 8
  %6 = alloca %"class.std::allocator.1", align 1
  call void @_ZNSaIcEC1Ev(ptr noundef nonnull align 1 dereferenceable(1) %6) #13
  %7 = invoke noundef ptr @_ZNSt7__cxx1112basic_stringIcSt11char_traitsIcESaIcEE13_M_local_dataEv(ptr noundef nonnull align 8 dereferenceable(32) %5)
          to label %.noexc unwind label %19

.noexc:                                           ; preds = %4
  invoke void @_ZNSt7__cxx1112basic_stringIcSt11char_traitsIcESaIcEE12_Alloc_hiderC1EPcRKS3_(ptr noundef nonnull align 8 dereferenceable(8) %5, ptr noundef %7, ptr noundef nonnull align 1 dereferenceable(1) %6)
          to label %.noexc10 unwind label %19

.noexc10:                                         ; preds = %.noexc
  invoke void @_ZNSt7__cxx1112basic_stringIcSt11char_traitsIcESaIcEE12_M_constructIPKcEEvT_S8_St20forward_iterator_tag(ptr noundef nonnull align 8 dereferenceable(32) %5, ptr noundef nonnull @.str, ptr noundef nonnull getelementptr inbounds ([9 x i8], ptr @.str, i64 0, i64 8))
          to label %_ZNSt7__cxx1112basic_stringIcSt11char_traitsIcESaIcEEC2IS3_EEPKcRKS3_.exit unwind label %8

8:                                                ; preds = %.noexc10
  %9 = landingpad { ptr, i32 }
          cleanup
  call void @_ZNSaIcED2Ev(ptr noundef nonnull align 1 dereferenceable(1) %5) #13
  br label %.body

_ZNSt7__cxx1112basic_stringIcSt11char_traitsIcESaIcEEC2IS3_EEPKcRKS3_.exit: ; preds = %.noexc10
  invoke void @_ZN7nanogui11PopupButtonC2EPNS_6WidgetERKNSt7__cxx1112basic_stringIcSt11char_traitsIcESaIcEEEi(ptr noundef nonnull align 8 dereferenceable(324) %0, ptr noundef %1, ptr noundef nonnull align 8 dereferenceable(32) %5, i32 noundef 0)
          to label %10 unwind label %21

10:                                               ; preds = %_ZNSt7__cxx1112basic_stringIcSt11char_traitsIcESaIcEEC2IS3_EEPKcRKS3_.exit
  call void @_ZNSt7__cxx1112basic_stringIcSt11char_traitsIcESaIcEED1Ev(ptr noundef nonnull align 8 dereferenceable(32) %5) #13
  call void @_ZNSaIcED1Ev(ptr noundef nonnull align 1 dereferenceable(1) %6) #13
  store ptr getelementptr inbounds ({ [17 x ptr] }, ptr @_ZTVN7nanogui8ComboBoxE, i64 0, i32 0, i64 2), ptr %0, align 8
  %11 = getelementptr inbounds i8, ptr %0, i64 328
  store ptr null, ptr %11, align 8
  %12 = getelementptr inbounds i8, ptr %0, i64 336
  %13 = getelementptr inbounds i8, ptr %0, i64 312
  %14 = load ptr, ptr %13, align 8
  store ptr %14, ptr %12, align 8
  %15 = getelementptr inbounds i8, ptr %0, i64 344
  %16 = getelementptr inbounds i8, ptr %0, i64 368
  %17 = getelementptr inbounds i8, ptr %0, i64 392
  call void @llvm.memset.p0.i64(ptr noundef nonnull align 8 dereferenceable(84) %15, i8 0, i64 84, i1 false)
  invoke void @_ZN7nanogui8ComboBox9set_itemsERKSt6vectorINSt7__cxx1112basic_stringIcSt11char_traitsIcESaIcEEESaIS7_EESB_(ptr noundef nonnull align 8 dereferenceable(428) %0, ptr noundef nonnull align 8 dereferenceable(24) %2, ptr noundef nonnull align 8 dereferenceable(24) %3)
          to label %18 unwind label %23

18:                                               ; preds = %10
  ret void

19:                                               ; preds = %.noexc, %4
  %20 = landingpad { ptr, i32 }
          cleanup
  br label %.body

21:                                               ; preds = %_ZNSt7__cxx1112basic_stringIcSt11char_traitsIcESaIcEEC2IS3_EEPKcRKS3_.exit
  %22 = landingpad { ptr, i32 }
          cleanup
  call void @_ZNSt7__cxx1112basic_stringIcSt11char_traitsIcESaIcEED1Ev(ptr noundef nonnull align 8 dereferenceable(32) %5) #13
  br label %.body

.body:                                            ; preds = %19, %8, %21
  %.pn = phi { ptr, i32 } [ %22, %21 ], [ %20, %19 ], [ %9, %8 ]
  call void @_ZNSaIcED1Ev(ptr noundef nonnull align 1 dereferenceable(1) %6) #13
  br label %32

23:                                               ; preds = %10
  %24 = landingpad { ptr, i32 }
          cleanup
  %25 = getelementptr inbounds i8, ptr %0, i64 408
  %26 = load ptr, ptr %25, align 8
  %.not.i.i = icmp eq ptr %26, null
  br i1 %.not.i.i, label %_ZNSt8functionIFviEED2Ev.exit, label %27

27:                                               ; preds = %23
  %28 = invoke noundef zeroext i1 %26(ptr noundef nonnull align 8 dereferenceable(16) %17, ptr noundef nonnull align 8 dereferenceable(16) %17, i32 noundef 3)
          to label %_ZNSt8functionIFviEED2Ev.exit unwind label %29

29:                                               ; preds = %27
  %30 = landingpad { ptr, i32 }
          catch ptr null
  %31 = extractvalue { ptr, i32 } %30, 0
  call void @__clang_call_terminate(ptr %31) #15
  unreachable

_ZNSt8functionIFviEED2Ev.exit:                    ; preds = %23, %27
  call void @_ZNSt6vectorINSt7__cxx1112basic_stringIcSt11char_traitsIcESaIcEEESaIS5_EED2Ev(ptr noundef nonnull align 8 dereferenceable(24) %16) #13
  call void @_ZNSt6vectorINSt7__cxx1112basic_stringIcSt11char_traitsIcESaIcEEESaIS5_EED2Ev(ptr noundef nonnull align 8 dereferenceable(24) %15) #13
  call void @_ZN7nanogui11PopupButtonD2Ev(ptr noundef nonnull align 8 dereferenceable(324) %0) #13
  br label %32

32:                                               ; preds = %_ZNSt8functionIFviEED2Ev.exit, %.body
  %.pn8 = phi { ptr, i32 } [ %24, %_ZNSt8functionIFviEED2Ev.exit ], [ %.pn, %.body ]
  resume { ptr, i32 } %.pn8
}